
Atmega32.elf:     file format elf32-avr

Sections:
Idx Name          Size      VMA       LMA       File off  Algn
  0 .text         000004ce  00000000  00000000  00000094  2**1
                  CONTENTS, ALLOC, LOAD, READONLY, CODE
  1 .data         00000038  00800060  000004ce  00000562  2**0
                  CONTENTS, ALLOC, LOAD, DATA
  2 .bss          00000007  00800098  00800098  0000059a  2**0
                  ALLOC
  3 .comment      00000030  00000000  00000000  0000059a  2**0
                  CONTENTS, READONLY
  4 .note.gnu.avr.deviceinfo 0000003c  00000000  00000000  000005cc  2**2
                  CONTENTS, READONLY
  5 .debug_info   000004e6  00000000  00000000  00000608  2**0
                  CONTENTS, READONLY, DEBUGGING
  6 .debug_abbrev 000004a3  00000000  00000000  00000aee  2**0
                  CONTENTS, READONLY, DEBUGGING
  7 .debug_line   00000116  00000000  00000000  00000f91  2**0
                  CONTENTS, READONLY, DEBUGGING
  8 .debug_str    00000196  00000000  00000000  000010a7  2**0
                  CONTENTS, READONLY, DEBUGGING

Disassembly of section .text:

00000000 <__vectors>:
   0:	0c 94 2a 00 	jmp	0x54	; 0x54 <__ctors_end>
   4:	0c 94 49 00 	jmp	0x92	; 0x92 <__vector_1>
   8:	0c 94 72 00 	jmp	0xe4	; 0xe4 <__vector_2>
   c:	0c 94 9b 00 	jmp	0x136	; 0x136 <__vector_3>
  10:	0c 94 47 00 	jmp	0x8e	; 0x8e <__bad_interrupt>
  14:	0c 94 47 00 	jmp	0x8e	; 0x8e <__bad_interrupt>
  18:	0c 94 47 00 	jmp	0x8e	; 0x8e <__bad_interrupt>
  1c:	0c 94 47 00 	jmp	0x8e	; 0x8e <__bad_interrupt>
  20:	0c 94 47 00 	jmp	0x8e	; 0x8e <__bad_interrupt>
  24:	0c 94 47 00 	jmp	0x8e	; 0x8e <__bad_interrupt>
  28:	0c 94 47 00 	jmp	0x8e	; 0x8e <__bad_interrupt>
  2c:	0c 94 47 00 	jmp	0x8e	; 0x8e <__bad_interrupt>
  30:	0c 94 47 00 	jmp	0x8e	; 0x8e <__bad_interrupt>
  34:	0c 94 47 00 	jmp	0x8e	; 0x8e <__bad_interrupt>
  38:	0c 94 47 00 	jmp	0x8e	; 0x8e <__bad_interrupt>
  3c:	0c 94 47 00 	jmp	0x8e	; 0x8e <__bad_interrupt>
  40:	0c 94 47 00 	jmp	0x8e	; 0x8e <__bad_interrupt>
  44:	0c 94 47 00 	jmp	0x8e	; 0x8e <__bad_interrupt>
  48:	0c 94 47 00 	jmp	0x8e	; 0x8e <__bad_interrupt>
  4c:	0c 94 47 00 	jmp	0x8e	; 0x8e <__bad_interrupt>
  50:	0c 94 47 00 	jmp	0x8e	; 0x8e <__bad_interrupt>

00000054 <__ctors_end>:
  54:	11 24       	eor	r1, r1
  56:	1f be       	out	0x3f, r1	; 63
  58:	cf e5       	ldi	r28, 0x5F	; 95
  5a:	d8 e0       	ldi	r29, 0x08	; 8
  5c:	de bf       	out	0x3e, r29	; 62
  5e:	cd bf       	out	0x3d, r28	; 61

00000060 <__do_copy_data>:
  60:	10 e0       	ldi	r17, 0x00	; 0
  62:	a0 e6       	ldi	r26, 0x60	; 96
  64:	b0 e0       	ldi	r27, 0x00	; 0
  66:	ee ec       	ldi	r30, 0xCE	; 206
  68:	f4 e0       	ldi	r31, 0x04	; 4
  6a:	02 c0       	rjmp	.+4      	; 0x70 <__do_copy_data+0x10>
  6c:	05 90       	lpm	r0, Z+
  6e:	0d 92       	st	X+, r0
  70:	a8 39       	cpi	r26, 0x98	; 152
  72:	b1 07       	cpc	r27, r17
  74:	d9 f7       	brne	.-10     	; 0x6c <__do_copy_data+0xc>

00000076 <__do_clear_bss>:
  76:	20 e0       	ldi	r18, 0x00	; 0
  78:	a8 e9       	ldi	r26, 0x98	; 152
  7a:	b0 e0       	ldi	r27, 0x00	; 0
  7c:	01 c0       	rjmp	.+2      	; 0x80 <.do_clear_bss_start>

0000007e <.do_clear_bss_loop>:
  7e:	1d 92       	st	X+, r1

00000080 <.do_clear_bss_start>:
  80:	af 39       	cpi	r26, 0x9F	; 159
  82:	b2 07       	cpc	r27, r18
  84:	e1 f7       	brne	.-8      	; 0x7e <.do_clear_bss_loop>
  86:	0e 94 56 01 	call	0x2ac	; 0x2ac <main>
  8a:	0c 94 65 02 	jmp	0x4ca	; 0x4ca <_exit>

0000008e <__bad_interrupt>:
  8e:	0c 94 00 00 	jmp	0	; 0x0 <__vectors>

00000092 <__vector_1>:
  92:	1f 92       	push	r1
  94:	0f 92       	push	r0
  96:	0f b6       	in	r0, 0x3f	; 63
  98:	0f 92       	push	r0
  9a:	11 24       	eor	r1, r1
  9c:	2f 93       	push	r18
  9e:	3f 93       	push	r19
  a0:	4f 93       	push	r20
  a2:	5f 93       	push	r21
  a4:	6f 93       	push	r22
  a6:	7f 93       	push	r23
  a8:	8f 93       	push	r24
  aa:	9f 93       	push	r25
  ac:	af 93       	push	r26
  ae:	bf 93       	push	r27
  b0:	ef 93       	push	r30
  b2:	ff 93       	push	r31
  b4:	e0 91 9c 00 	lds	r30, 0x009C	; 0x80009c <pfCallBackInt0>
  b8:	f0 91 9d 00 	lds	r31, 0x009D	; 0x80009d <pfCallBackInt0+0x1>
  bc:	30 97       	sbiw	r30, 0x00	; 0
  be:	09 f0       	breq	.+2      	; 0xc2 <__vector_1+0x30>
  c0:	09 95       	icall
  c2:	ff 91       	pop	r31
  c4:	ef 91       	pop	r30
  c6:	bf 91       	pop	r27
  c8:	af 91       	pop	r26
  ca:	9f 91       	pop	r25
  cc:	8f 91       	pop	r24
  ce:	7f 91       	pop	r23
  d0:	6f 91       	pop	r22
  d2:	5f 91       	pop	r21
  d4:	4f 91       	pop	r20
  d6:	3f 91       	pop	r19
  d8:	2f 91       	pop	r18
  da:	0f 90       	pop	r0
  dc:	0f be       	out	0x3f, r0	; 63
  de:	0f 90       	pop	r0
  e0:	1f 90       	pop	r1
  e2:	18 95       	reti

000000e4 <__vector_2>:
  e4:	1f 92       	push	r1
  e6:	0f 92       	push	r0
  e8:	0f b6       	in	r0, 0x3f	; 63
  ea:	0f 92       	push	r0
  ec:	11 24       	eor	r1, r1
  ee:	2f 93       	push	r18
  f0:	3f 93       	push	r19
  f2:	4f 93       	push	r20
  f4:	5f 93       	push	r21
  f6:	6f 93       	push	r22
  f8:	7f 93       	push	r23
  fa:	8f 93       	push	r24
  fc:	9f 93       	push	r25
  fe:	af 93       	push	r26
 100:	bf 93       	push	r27
 102:	ef 93       	push	r30
 104:	ff 93       	push	r31
 106:	e0 91 9a 00 	lds	r30, 0x009A	; 0x80009a <pfCallBackInt1>
 10a:	f0 91 9b 00 	lds	r31, 0x009B	; 0x80009b <pfCallBackInt1+0x1>
 10e:	30 97       	sbiw	r30, 0x00	; 0
 110:	09 f0       	breq	.+2      	; 0x114 <__vector_2+0x30>
 112:	09 95       	icall
 114:	ff 91       	pop	r31
 116:	ef 91       	pop	r30
 118:	bf 91       	pop	r27
 11a:	af 91       	pop	r26
 11c:	9f 91       	pop	r25
 11e:	8f 91       	pop	r24
 120:	7f 91       	pop	r23
 122:	6f 91       	pop	r22
 124:	5f 91       	pop	r21
 126:	4f 91       	pop	r20
 128:	3f 91       	pop	r19
 12a:	2f 91       	pop	r18
 12c:	0f 90       	pop	r0
 12e:	0f be       	out	0x3f, r0	; 63
 130:	0f 90       	pop	r0
 132:	1f 90       	pop	r1
 134:	18 95       	reti

00000136 <__vector_3>:
 136:	1f 92       	push	r1
 138:	0f 92       	push	r0
 13a:	0f b6       	in	r0, 0x3f	; 63
 13c:	0f 92       	push	r0
 13e:	11 24       	eor	r1, r1
 140:	2f 93       	push	r18
 142:	3f 93       	push	r19
 144:	4f 93       	push	r20
 146:	5f 93       	push	r21
 148:	6f 93       	push	r22
 14a:	7f 93       	push	r23
 14c:	8f 93       	push	r24
 14e:	9f 93       	push	r25
 150:	af 93       	push	r26
 152:	bf 93       	push	r27
 154:	ef 93       	push	r30
 156:	ff 93       	push	r31
 158:	e0 91 98 00 	lds	r30, 0x0098	; 0x800098 <__data_end>
 15c:	f0 91 99 00 	lds	r31, 0x0099	; 0x800099 <__data_end+0x1>
 160:	30 97       	sbiw	r30, 0x00	; 0
 162:	09 f0       	breq	.+2      	; 0x166 <__vector_3+0x30>
 164:	09 95       	icall
 166:	ff 91       	pop	r31
 168:	ef 91       	pop	r30
 16a:	bf 91       	pop	r27
 16c:	af 91       	pop	r26
 16e:	9f 91       	pop	r25
 170:	8f 91       	pop	r24
 172:	7f 91       	pop	r23
 174:	6f 91       	pop	r22
 176:	5f 91       	pop	r21
 178:	4f 91       	pop	r20
 17a:	3f 91       	pop	r19
 17c:	2f 91       	pop	r18
 17e:	0f 90       	pop	r0
 180:	0f be       	out	0x3f, r0	; 63
 182:	0f 90       	pop	r0
 184:	1f 90       	pop	r1
 186:	18 95       	reti

00000188 <LCD_WriteCMD>:
 188:	cf 93       	push	r28
 18a:	c8 2f       	mov	r28, r24
 18c:	60 e0       	ldi	r22, 0x00	; 0
 18e:	88 e0       	ldi	r24, 0x08	; 8
 190:	0e 94 04 02 	call	0x408	; 0x408 <Dio_WritePin>
 194:	6c 2f       	mov	r22, r28
 196:	82 e0       	ldi	r24, 0x02	; 2
 198:	0e 94 3f 02 	call	0x47e	; 0x47e <Dio_WritePort>
 19c:	61 e0       	ldi	r22, 0x01	; 1
 19e:	89 e0       	ldi	r24, 0x09	; 9
 1a0:	0e 94 04 02 	call	0x408	; 0x408 <Dio_WritePin>
 1a4:	8f ec       	ldi	r24, 0xCF	; 207
 1a6:	97 e0       	ldi	r25, 0x07	; 7
 1a8:	01 97       	sbiw	r24, 0x01	; 1
 1aa:	f1 f7       	brne	.-4      	; 0x1a8 <LCD_WriteCMD+0x20>
 1ac:	00 c0       	rjmp	.+0      	; 0x1ae <LCD_WriteCMD+0x26>
 1ae:	00 00       	nop
 1b0:	60 e0       	ldi	r22, 0x00	; 0
 1b2:	89 e0       	ldi	r24, 0x09	; 9
 1b4:	0e 94 04 02 	call	0x408	; 0x408 <Dio_WritePin>
 1b8:	8f ec       	ldi	r24, 0xCF	; 207
 1ba:	97 e0       	ldi	r25, 0x07	; 7
 1bc:	01 97       	sbiw	r24, 0x01	; 1
 1be:	f1 f7       	brne	.-4      	; 0x1bc <LCD_WriteCMD+0x34>
 1c0:	00 c0       	rjmp	.+0      	; 0x1c2 <LCD_WriteCMD+0x3a>
 1c2:	00 00       	nop
 1c4:	cf 91       	pop	r28
 1c6:	08 95       	ret

000001c8 <LCD_init>:
 1c8:	2f e7       	ldi	r18, 0x7F	; 127
 1ca:	88 e3       	ldi	r24, 0x38	; 56
 1cc:	91 e0       	ldi	r25, 0x01	; 1
 1ce:	21 50       	subi	r18, 0x01	; 1
 1d0:	80 40       	sbci	r24, 0x00	; 0
 1d2:	90 40       	sbci	r25, 0x00	; 0
 1d4:	e1 f7       	brne	.-8      	; 0x1ce <LCD_init+0x6>
 1d6:	00 c0       	rjmp	.+0      	; 0x1d8 <LCD_init+0x10>
 1d8:	00 00       	nop
 1da:	88 e3       	ldi	r24, 0x38	; 56
 1dc:	0e 94 c4 00 	call	0x188	; 0x188 <LCD_WriteCMD>
 1e0:	2f e7       	ldi	r18, 0x7F	; 127
 1e2:	88 e3       	ldi	r24, 0x38	; 56
 1e4:	91 e0       	ldi	r25, 0x01	; 1
 1e6:	21 50       	subi	r18, 0x01	; 1
 1e8:	80 40       	sbci	r24, 0x00	; 0
 1ea:	90 40       	sbci	r25, 0x00	; 0
 1ec:	e1 f7       	brne	.-8      	; 0x1e6 <LCD_init+0x1e>
 1ee:	00 c0       	rjmp	.+0      	; 0x1f0 <LCD_init+0x28>
 1f0:	00 00       	nop
 1f2:	88 e3       	ldi	r24, 0x38	; 56
 1f4:	0e 94 c4 00 	call	0x188	; 0x188 <LCD_WriteCMD>
 1f8:	2f e7       	ldi	r18, 0x7F	; 127
 1fa:	88 e3       	ldi	r24, 0x38	; 56
 1fc:	91 e0       	ldi	r25, 0x01	; 1
 1fe:	21 50       	subi	r18, 0x01	; 1
 200:	80 40       	sbci	r24, 0x00	; 0
 202:	90 40       	sbci	r25, 0x00	; 0
 204:	e1 f7       	brne	.-8      	; 0x1fe <LCD_init+0x36>
 206:	00 c0       	rjmp	.+0      	; 0x208 <LCD_init+0x40>
 208:	00 00       	nop
 20a:	81 e0       	ldi	r24, 0x01	; 1
 20c:	0e 94 c4 00 	call	0x188	; 0x188 <LCD_WriteCMD>
 210:	2f e7       	ldi	r18, 0x7F	; 127
 212:	88 e3       	ldi	r24, 0x38	; 56
 214:	91 e0       	ldi	r25, 0x01	; 1
 216:	21 50       	subi	r18, 0x01	; 1
 218:	80 40       	sbci	r24, 0x00	; 0
 21a:	90 40       	sbci	r25, 0x00	; 0
 21c:	e1 f7       	brne	.-8      	; 0x216 <LCD_init+0x4e>
 21e:	00 c0       	rjmp	.+0      	; 0x220 <LCD_init+0x58>
 220:	00 00       	nop
 222:	82 e0       	ldi	r24, 0x02	; 2
 224:	0e 94 c4 00 	call	0x188	; 0x188 <LCD_WriteCMD>
 228:	2f e7       	ldi	r18, 0x7F	; 127
 22a:	88 e3       	ldi	r24, 0x38	; 56
 22c:	91 e0       	ldi	r25, 0x01	; 1
 22e:	21 50       	subi	r18, 0x01	; 1
 230:	80 40       	sbci	r24, 0x00	; 0
 232:	90 40       	sbci	r25, 0x00	; 0
 234:	e1 f7       	brne	.-8      	; 0x22e <LCD_init+0x66>
 236:	00 c0       	rjmp	.+0      	; 0x238 <LCD_init+0x70>
 238:	00 00       	nop
 23a:	08 95       	ret

0000023c <LCD_WriteCh>:
 23c:	cf 93       	push	r28
 23e:	c8 2f       	mov	r28, r24
 240:	61 e0       	ldi	r22, 0x01	; 1
 242:	88 e0       	ldi	r24, 0x08	; 8
 244:	0e 94 04 02 	call	0x408	; 0x408 <Dio_WritePin>
 248:	6c 2f       	mov	r22, r28
 24a:	82 e0       	ldi	r24, 0x02	; 2
 24c:	0e 94 3f 02 	call	0x47e	; 0x47e <Dio_WritePort>
 250:	61 e0       	ldi	r22, 0x01	; 1
 252:	89 e0       	ldi	r24, 0x09	; 9
 254:	0e 94 04 02 	call	0x408	; 0x408 <Dio_WritePin>
 258:	8f ec       	ldi	r24, 0xCF	; 207
 25a:	97 e0       	ldi	r25, 0x07	; 7
 25c:	01 97       	sbiw	r24, 0x01	; 1
 25e:	f1 f7       	brne	.-4      	; 0x25c <LCD_WriteCh+0x20>
 260:	00 c0       	rjmp	.+0      	; 0x262 <LCD_WriteCh+0x26>
 262:	00 00       	nop
 264:	60 e0       	ldi	r22, 0x00	; 0
 266:	89 e0       	ldi	r24, 0x09	; 9
 268:	0e 94 04 02 	call	0x408	; 0x408 <Dio_WritePin>
 26c:	8f ec       	ldi	r24, 0xCF	; 207
 26e:	97 e0       	ldi	r25, 0x07	; 7
 270:	01 97       	sbiw	r24, 0x01	; 1
 272:	f1 f7       	brne	.-4      	; 0x270 <LCD_WriteCh+0x34>
 274:	00 c0       	rjmp	.+0      	; 0x276 <LCD_WriteCh+0x3a>
 276:	00 00       	nop
 278:	8f ec       	ldi	r24, 0xCF	; 207
 27a:	97 e0       	ldi	r25, 0x07	; 7
 27c:	01 97       	sbiw	r24, 0x01	; 1
 27e:	f1 f7       	brne	.-4      	; 0x27c <LCD_WriteCh+0x40>
 280:	00 c0       	rjmp	.+0      	; 0x282 <LCD_WriteCh+0x46>
 282:	00 00       	nop
 284:	cf 91       	pop	r28
 286:	08 95       	ret

00000288 <LCD_SetCursor>:
 288:	88 23       	and	r24, r24
 28a:	19 f0       	breq	.+6      	; 0x292 <LCD_SetCursor+0xa>
 28c:	81 30       	cpi	r24, 0x01	; 1
 28e:	19 f0       	breq	.+6      	; 0x296 <LCD_SetCursor+0xe>
 290:	08 95       	ret
 292:	80 e8       	ldi	r24, 0x80	; 128
 294:	01 c0       	rjmp	.+2      	; 0x298 <LCD_SetCursor+0x10>
 296:	80 ec       	ldi	r24, 0xC0	; 192
 298:	86 0f       	add	r24, r22
 29a:	0e 94 c4 00 	call	0x188	; 0x188 <LCD_WriteCMD>
 29e:	8f ec       	ldi	r24, 0xCF	; 207
 2a0:	97 e0       	ldi	r25, 0x07	; 7
 2a2:	01 97       	sbiw	r24, 0x01	; 1
 2a4:	f1 f7       	brne	.-4      	; 0x2a2 <LCD_SetCursor+0x1a>
 2a6:	00 c0       	rjmp	.+0      	; 0x2a8 <LCD_SetCursor+0x20>
 2a8:	00 00       	nop
 2aa:	08 95       	ret

000002ac <main>:
 2ac:	0e 94 6b 01 	call	0x2d6	; 0x2d6 <Dio_Init>
 2b0:	0e 94 e4 00 	call	0x1c8	; 0x1c8 <LCD_init>
 2b4:	60 e0       	ldi	r22, 0x00	; 0
 2b6:	80 e0       	ldi	r24, 0x00	; 0
 2b8:	0e 94 44 01 	call	0x288	; 0x288 <LCD_SetCursor>
 2bc:	81 e6       	ldi	r24, 0x61	; 97
 2be:	0e 94 1e 01 	call	0x23c	; 0x23c <LCD_WriteCh>
 2c2:	81 e6       	ldi	r24, 0x61	; 97
 2c4:	0e 94 1e 01 	call	0x23c	; 0x23c <LCD_WriteCh>
 2c8:	80 91 9e 00 	lds	r24, 0x009E	; 0x80009e <flag>
 2cc:	81 30       	cpi	r24, 0x01	; 1
 2ce:	c9 f7       	brne	.-14     	; 0x2c2 <main+0x16>
 2d0:	10 92 9e 00 	sts	0x009E, r1	; 0x80009e <flag>
 2d4:	f6 cf       	rjmp	.-20     	; 0x2c2 <main+0x16>

000002d6 <Dio_Init>:
 2d6:	0f 93       	push	r16
 2d8:	1f 93       	push	r17
 2da:	cf 93       	push	r28
 2dc:	df 93       	push	r29
 2de:	cd b7       	in	r28, 0x3d	; 61
 2e0:	de b7       	in	r29, 0x3e	; 62
 2e2:	60 97       	sbiw	r28, 0x10	; 16
 2e4:	0f b6       	in	r0, 0x3f	; 63
 2e6:	f8 94       	cli
 2e8:	de bf       	out	0x3e, r29	; 62
 2ea:	0f be       	out	0x3f, r0	; 63
 2ec:	cd bf       	out	0x3d, r28	; 61
 2ee:	68 e7       	ldi	r22, 0x78	; 120
 2f0:	70 e0       	ldi	r23, 0x00	; 0
 2f2:	80 e0       	ldi	r24, 0x00	; 0
 2f4:	41 e0       	ldi	r20, 0x01	; 1
 2f6:	50 e0       	ldi	r21, 0x00	; 0
 2f8:	fb 01       	movw	r30, r22
 2fa:	91 91       	ld	r25, Z+
 2fc:	bf 01       	movw	r22, r30
 2fe:	28 e0       	ldi	r18, 0x08	; 8
 300:	e0 e6       	ldi	r30, 0x60	; 96
 302:	f0 e0       	ldi	r31, 0x00	; 0
 304:	de 01       	movw	r26, r28
 306:	19 96       	adiw	r26, 0x09	; 9
 308:	01 90       	ld	r0, Z+
 30a:	0d 92       	st	X+, r0
 30c:	2a 95       	dec	r18
 30e:	e1 f7       	brne	.-8      	; 0x308 <Dio_Init+0x32>
 310:	28 e0       	ldi	r18, 0x08	; 8
 312:	e8 e6       	ldi	r30, 0x68	; 104
 314:	f0 e0       	ldi	r31, 0x00	; 0
 316:	de 01       	movw	r26, r28
 318:	11 96       	adiw	r26, 0x01	; 1
 31a:	01 90       	ld	r0, Z+
 31c:	0d 92       	st	X+, r0
 31e:	2a 95       	dec	r18
 320:	e1 f7       	brne	.-8      	; 0x31a <Dio_Init+0x44>
 322:	91 30       	cpi	r25, 0x01	; 1
 324:	09 f4       	brne	.+2      	; 0x328 <Dio_Init+0x52>
 326:	42 c0       	rjmp	.+132    	; 0x3ac <Dio_Init+0xd6>
 328:	18 f1       	brcs	.+70     	; 0x370 <Dio_Init+0x9a>
 32a:	92 30       	cpi	r25, 0x02	; 2
 32c:	09 f0       	breq	.+2      	; 0x330 <Dio_Init+0x5a>
 32e:	5d c0       	rjmp	.+186    	; 0x3ea <Dio_Init+0x114>
 330:	fe 01       	movw	r30, r28
 332:	31 96       	adiw	r30, 0x01	; 1
 334:	98 2f       	mov	r25, r24
 336:	96 95       	lsr	r25
 338:	96 95       	lsr	r25
 33a:	96 95       	lsr	r25
 33c:	e9 0f       	add	r30, r25
 33e:	f1 1d       	adc	r31, r1
 340:	e9 0f       	add	r30, r25
 342:	f1 1d       	adc	r31, r1
 344:	a0 85       	ldd	r26, Z+8	; 0x08
 346:	b1 85       	ldd	r27, Z+9	; 0x09
 348:	9c 91       	ld	r25, X
 34a:	28 2f       	mov	r18, r24
 34c:	27 70       	andi	r18, 0x07	; 7
 34e:	8a 01       	movw	r16, r20
 350:	02 c0       	rjmp	.+4      	; 0x356 <Dio_Init+0x80>
 352:	00 0f       	add	r16, r16
 354:	11 1f       	adc	r17, r17
 356:	2a 95       	dec	r18
 358:	e2 f7       	brpl	.-8      	; 0x352 <Dio_Init+0x7c>
 35a:	98 01       	movw	r18, r16
 35c:	30 2f       	mov	r19, r16
 35e:	30 95       	com	r19
 360:	93 23       	and	r25, r19
 362:	9c 93       	st	X, r25
 364:	01 90       	ld	r0, Z+
 366:	f0 81       	ld	r31, Z
 368:	e0 2d       	mov	r30, r0
 36a:	90 81       	ld	r25, Z
 36c:	29 2b       	or	r18, r25
 36e:	3c c0       	rjmp	.+120    	; 0x3e8 <Dio_Init+0x112>
 370:	fe 01       	movw	r30, r28
 372:	31 96       	adiw	r30, 0x01	; 1
 374:	98 2f       	mov	r25, r24
 376:	96 95       	lsr	r25
 378:	96 95       	lsr	r25
 37a:	96 95       	lsr	r25
 37c:	e9 0f       	add	r30, r25
 37e:	f1 1d       	adc	r31, r1
 380:	e9 0f       	add	r30, r25
 382:	f1 1d       	adc	r31, r1
 384:	a0 85       	ldd	r26, Z+8	; 0x08
 386:	b1 85       	ldd	r27, Z+9	; 0x09
 388:	9c 91       	ld	r25, X
 38a:	28 2f       	mov	r18, r24
 38c:	27 70       	andi	r18, 0x07	; 7
 38e:	8a 01       	movw	r16, r20
 390:	02 c0       	rjmp	.+4      	; 0x396 <Dio_Init+0xc0>
 392:	00 0f       	add	r16, r16
 394:	11 1f       	adc	r17, r17
 396:	2a 95       	dec	r18
 398:	e2 f7       	brpl	.-8      	; 0x392 <Dio_Init+0xbc>
 39a:	98 01       	movw	r18, r16
 39c:	90 2b       	or	r25, r16
 39e:	9c 93       	st	X, r25
 3a0:	01 90       	ld	r0, Z+
 3a2:	f0 81       	ld	r31, Z
 3a4:	e0 2d       	mov	r30, r0
 3a6:	90 81       	ld	r25, Z
 3a8:	20 95       	com	r18
 3aa:	1d c0       	rjmp	.+58     	; 0x3e6 <Dio_Init+0x110>
 3ac:	fe 01       	movw	r30, r28
 3ae:	31 96       	adiw	r30, 0x01	; 1
 3b0:	98 2f       	mov	r25, r24
 3b2:	96 95       	lsr	r25
 3b4:	96 95       	lsr	r25
 3b6:	96 95       	lsr	r25
 3b8:	e9 0f       	add	r30, r25
 3ba:	f1 1d       	adc	r31, r1
 3bc:	e9 0f       	add	r30, r25
 3be:	f1 1d       	adc	r31, r1
 3c0:	a0 85       	ldd	r26, Z+8	; 0x08
 3c2:	b1 85       	ldd	r27, Z+9	; 0x09
 3c4:	9c 91       	ld	r25, X
 3c6:	28 2f       	mov	r18, r24
 3c8:	27 70       	andi	r18, 0x07	; 7
 3ca:	8a 01       	movw	r16, r20
 3cc:	02 c0       	rjmp	.+4      	; 0x3d2 <Dio_Init+0xfc>
 3ce:	00 0f       	add	r16, r16
 3d0:	11 1f       	adc	r17, r17
 3d2:	2a 95       	dec	r18
 3d4:	e2 f7       	brpl	.-8      	; 0x3ce <Dio_Init+0xf8>
 3d6:	98 01       	movw	r18, r16
 3d8:	20 95       	com	r18
 3da:	92 23       	and	r25, r18
 3dc:	9c 93       	st	X, r25
 3de:	01 90       	ld	r0, Z+
 3e0:	f0 81       	ld	r31, Z
 3e2:	e0 2d       	mov	r30, r0
 3e4:	90 81       	ld	r25, Z
 3e6:	29 23       	and	r18, r25
 3e8:	20 83       	st	Z, r18
 3ea:	8f 5f       	subi	r24, 0xFF	; 255
 3ec:	80 32       	cpi	r24, 0x20	; 32
 3ee:	09 f0       	breq	.+2      	; 0x3f2 <Dio_Init+0x11c>
 3f0:	83 cf       	rjmp	.-250    	; 0x2f8 <Dio_Init+0x22>
 3f2:	60 96       	adiw	r28, 0x10	; 16
 3f4:	0f b6       	in	r0, 0x3f	; 63
 3f6:	f8 94       	cli
 3f8:	de bf       	out	0x3e, r29	; 62
 3fa:	0f be       	out	0x3f, r0	; 63
 3fc:	cd bf       	out	0x3d, r28	; 61
 3fe:	df 91       	pop	r29
 400:	cf 91       	pop	r28
 402:	1f 91       	pop	r17
 404:	0f 91       	pop	r16
 406:	08 95       	ret

00000408 <Dio_WritePin>:
 408:	cf 93       	push	r28
 40a:	df 93       	push	r29
 40c:	cd b7       	in	r28, 0x3d	; 61
 40e:	de b7       	in	r29, 0x3e	; 62
 410:	28 97       	sbiw	r28, 0x08	; 8
 412:	0f b6       	in	r0, 0x3f	; 63
 414:	f8 94       	cli
 416:	de bf       	out	0x3e, r29	; 62
 418:	0f be       	out	0x3f, r0	; 63
 41a:	cd bf       	out	0x3d, r28	; 61
 41c:	98 e0       	ldi	r25, 0x08	; 8
 41e:	e8 e6       	ldi	r30, 0x68	; 104
 420:	f0 e0       	ldi	r31, 0x00	; 0
 422:	de 01       	movw	r26, r28
 424:	11 96       	adiw	r26, 0x01	; 1
 426:	01 90       	ld	r0, Z+
 428:	0d 92       	st	X+, r0
 42a:	9a 95       	dec	r25
 42c:	e1 f7       	brne	.-8      	; 0x426 <Dio_WritePin+0x1e>
 42e:	98 2f       	mov	r25, r24
 430:	96 95       	lsr	r25
 432:	96 95       	lsr	r25
 434:	96 95       	lsr	r25
 436:	fe 01       	movw	r30, r28
 438:	31 96       	adiw	r30, 0x01	; 1
 43a:	e9 0f       	add	r30, r25
 43c:	f1 1d       	adc	r31, r1
 43e:	e9 0f       	add	r30, r25
 440:	f1 1d       	adc	r31, r1
 442:	01 90       	ld	r0, Z+
 444:	f0 81       	ld	r31, Z
 446:	e0 2d       	mov	r30, r0
 448:	20 81       	ld	r18, Z
 44a:	87 70       	andi	r24, 0x07	; 7
 44c:	41 e0       	ldi	r20, 0x01	; 1
 44e:	50 e0       	ldi	r21, 0x00	; 0
 450:	08 2e       	mov	r0, r24
 452:	01 c0       	rjmp	.+2      	; 0x456 <Dio_WritePin+0x4e>
 454:	44 0f       	add	r20, r20
 456:	0a 94       	dec	r0
 458:	ea f7       	brpl	.-6      	; 0x454 <Dio_WritePin+0x4c>
 45a:	94 2f       	mov	r25, r20
 45c:	90 95       	com	r25
 45e:	92 23       	and	r25, r18
 460:	01 c0       	rjmp	.+2      	; 0x464 <Dio_WritePin+0x5c>
 462:	66 0f       	add	r22, r22
 464:	8a 95       	dec	r24
 466:	ea f7       	brpl	.-6      	; 0x462 <Dio_WritePin+0x5a>
 468:	69 2b       	or	r22, r25
 46a:	60 83       	st	Z, r22
 46c:	28 96       	adiw	r28, 0x08	; 8
 46e:	0f b6       	in	r0, 0x3f	; 63
 470:	f8 94       	cli
 472:	de bf       	out	0x3e, r29	; 62
 474:	0f be       	out	0x3f, r0	; 63
 476:	cd bf       	out	0x3d, r28	; 61
 478:	df 91       	pop	r29
 47a:	cf 91       	pop	r28
 47c:	08 95       	ret

0000047e <Dio_WritePort>:
 47e:	cf 93       	push	r28
 480:	df 93       	push	r29
 482:	cd b7       	in	r28, 0x3d	; 61
 484:	de b7       	in	r29, 0x3e	; 62
 486:	28 97       	sbiw	r28, 0x08	; 8
 488:	0f b6       	in	r0, 0x3f	; 63
 48a:	f8 94       	cli
 48c:	de bf       	out	0x3e, r29	; 62
 48e:	0f be       	out	0x3f, r0	; 63
 490:	cd bf       	out	0x3d, r28	; 61
 492:	98 e0       	ldi	r25, 0x08	; 8
 494:	e8 e6       	ldi	r30, 0x68	; 104
 496:	f0 e0       	ldi	r31, 0x00	; 0
 498:	de 01       	movw	r26, r28
 49a:	11 96       	adiw	r26, 0x01	; 1
 49c:	01 90       	ld	r0, Z+
 49e:	0d 92       	st	X+, r0
 4a0:	9a 95       	dec	r25
 4a2:	e1 f7       	brne	.-8      	; 0x49c <Dio_WritePort+0x1e>
 4a4:	fe 01       	movw	r30, r28
 4a6:	31 96       	adiw	r30, 0x01	; 1
 4a8:	e8 0f       	add	r30, r24
 4aa:	f1 1d       	adc	r31, r1
 4ac:	e8 0f       	add	r30, r24
 4ae:	f1 1d       	adc	r31, r1
 4b0:	01 90       	ld	r0, Z+
 4b2:	f0 81       	ld	r31, Z
 4b4:	e0 2d       	mov	r30, r0
 4b6:	60 83       	st	Z, r22
 4b8:	28 96       	adiw	r28, 0x08	; 8
 4ba:	0f b6       	in	r0, 0x3f	; 63
 4bc:	f8 94       	cli
 4be:	de bf       	out	0x3e, r29	; 62
 4c0:	0f be       	out	0x3f, r0	; 63
 4c2:	cd bf       	out	0x3d, r28	; 61
 4c4:	df 91       	pop	r29
 4c6:	cf 91       	pop	r28
 4c8:	08 95       	ret

000004ca <_exit>:
 4ca:	f8 94       	cli

000004cc <__stop_program>:
 4cc:	ff cf       	rjmp	.-2      	; 0x4cc <__stop_program>
